target datalayout = "e-m:e-p270:32:32-p271:32:32-p272:64:64-i64:64-i128:128-f80:128-n8:16:32:64-S128"
target triple = "x86_64-pc-linux-gnu"

%struct.lua_Debug = type { i32, ptr, ptr, ptr, ptr, i32, i32, i32, i32, [60 x i8], i32 }

@.str.17 = private unnamed_addr constant [2 x i8] c"\0A\00", align 1
@.str.42 = private unnamed_addr constant [1 x i8] zeroinitializer, align 1
@.str.43 = private unnamed_addr constant [17 x i8] c"stack traceback:\00", align 1
@.str.44 = private unnamed_addr constant [6 x i8] c"\0A\09...\00", align 1
@.str.45 = private unnamed_addr constant [3 x i8] c"\0A\09\00", align 1
@.str.46 = private unnamed_addr constant [4 x i8] c"Snl\00", align 1
@.str.47 = private unnamed_addr constant [4 x i8] c"%s:\00", align 1
@.str.48 = private unnamed_addr constant [4 x i8] c"%d:\00", align 1
@.str.49 = private unnamed_addr constant [18 x i8] c" in function '%s'\00", align 1
@.str.50 = private unnamed_addr constant [15 x i8] c" in main chunk\00", align 1
@.str.51 = private unnamed_addr constant [3 x i8] c" ?\00", align 1
@.str.52 = private unnamed_addr constant [21 x i8] c" in function <%s:%d>\00", align 1

; Function Attrs: nounwind uwtable
define internal ptr @getthread(ptr noundef %0, ptr noundef %1) #0 {
  %3 = alloca ptr, align 8
  %4 = alloca ptr, align 8
  %5 = alloca ptr, align 8
  store ptr %0, ptr %4, align 8, !tbaa !4
  store ptr %1, ptr %5, align 8, !tbaa !29
  %6 = load ptr, ptr %4, align 8, !tbaa !4
  %7 = call i32 @lua_type(ptr noundef %6, i32 noundef 1)
  %8 = icmp eq i32 %7, 8
  br i1 %8, label %9, label %13

9:                                                ; preds = %2
  %10 = load ptr, ptr %5, align 8, !tbaa !29
  store i32 1, ptr %10, align 4, !tbaa !11
  %11 = load ptr, ptr %4, align 8, !tbaa !4
  %12 = call ptr @lua_tothread(ptr noundef %11, i32 noundef 1)
  store ptr %12, ptr %3, align 8
  br label %16

13:                                               ; preds = %2
  %14 = load ptr, ptr %5, align 8, !tbaa !29
  store i32 0, ptr %14, align 4, !tbaa !11
  %15 = load ptr, ptr %4, align 8, !tbaa !4
  store ptr %15, ptr %3, align 8
  br label %16

16:                                               ; preds = %13, %9
  %17 = load ptr, ptr %3, align 8
  ret ptr %17
}

; Function Attrs: nounwind uwtable
define internal i32 @db_errorfb(ptr noundef %0) #0 {
  %2 = alloca i32, align 4
  %3 = alloca ptr, align 8
  %4 = alloca i32, align 4
  %5 = alloca i32, align 4
  %6 = alloca i32, align 4
  %7 = alloca ptr, align 8
  %8 = alloca %struct.lua_Debug, align 8
  %9 = alloca i32, align 4
  store ptr %0, ptr %3, align 8, !tbaa !4
  call void @llvm.lifetime.start.p0(i64 4, ptr %4) #4
  call void @llvm.lifetime.start.p0(i64 4, ptr %5) #4
  store i32 1, ptr %5, align 4, !tbaa !11
  call void @llvm.lifetime.start.p0(i64 4, ptr %6) #4
  call void @llvm.lifetime.start.p0(i64 8, ptr %7) #4
  %10 = load ptr, ptr %3, align 8, !tbaa !4
  %11 = call ptr @getthread(ptr noundef %10, ptr noundef %6)
  store ptr %11, ptr %7, align 8, !tbaa !4
  call void @llvm.lifetime.start.p0(i64 120, ptr %8) #4
  %12 = load ptr, ptr %3, align 8, !tbaa !4
  %13 = load i32, ptr %6, align 4, !tbaa !11
  %14 = add nsw i32 %13, 2
  %15 = call i32 @lua_isnumber(ptr noundef %12, i32 noundef %14)
  %16 = icmp ne i32 %15, 0
  br i1 %16, label %17, label %24

17:                                               ; preds = %1
  %18 = load ptr, ptr %3, align 8, !tbaa !4
  %19 = load i32, ptr %6, align 4, !tbaa !11
  %20 = add nsw i32 %19, 2
  %21 = call i64 @lua_tointeger(ptr noundef %18, i32 noundef %20)
  %22 = trunc i64 %21 to i32
  store i32 %22, ptr %4, align 4, !tbaa !11
  %23 = load ptr, ptr %3, align 8, !tbaa !4
  call void @lua_settop(ptr noundef %23, i32 noundef -2)
  br label %29

24:                                               ; preds = %1
  %25 = load ptr, ptr %3, align 8, !tbaa !4
  %26 = load ptr, ptr %7, align 8, !tbaa !4
  %27 = icmp eq ptr %25, %26
  %28 = select i1 %27, i32 1, i32 0
  store i32 %28, ptr %4, align 4, !tbaa !11
  br label %29

29:                                               ; preds = %24, %17
  %30 = load ptr, ptr %3, align 8, !tbaa !4
  %31 = call i32 @lua_gettop(ptr noundef %30)
  %32 = load i32, ptr %6, align 4, !tbaa !11
  %33 = icmp eq i32 %31, %32
  br i1 %33, label %34, label %36

34:                                               ; preds = %29
  %35 = load ptr, ptr %3, align 8, !tbaa !4
  call void @lua_pushlstring(ptr noundef %35, ptr noundef @.str.42, i64 noundef 0)
  br label %46

36:                                               ; preds = %29
  %37 = load ptr, ptr %3, align 8, !tbaa !4
  %38 = load i32, ptr %6, align 4, !tbaa !11
  %39 = add nsw i32 %38, 1
  %40 = call i32 @lua_isstring(ptr noundef %37, i32 noundef %39)
  %41 = icmp ne i32 %40, 0
  br i1 %41, label %43, label %42

42:                                               ; preds = %36
  store i32 1, ptr %2, align 4
  store i32 1, ptr %9, align 4
  br label %153

43:                                               ; preds = %36
  %44 = load ptr, ptr %3, align 8, !tbaa !4
  call void @lua_pushlstring(ptr noundef %44, ptr noundef @.str.17, i64 noundef 1)
  br label %45

45:                                               ; preds = %43
  br label %46

46:                                               ; preds = %45, %34
  %47 = load ptr, ptr %3, align 8, !tbaa !4
  call void @lua_pushlstring(ptr noundef %47, ptr noundef @.str.43, i64 noundef 16)
  br label %48

48:                                               ; preds = %141, %81, %46
  %49 = load ptr, ptr %7, align 8, !tbaa !4
  %50 = load i32, ptr %4, align 4, !tbaa !11
  %51 = add nsw i32 %50, 1
  store i32 %51, ptr %4, align 4, !tbaa !11
  %52 = call i32 @lua_getstack(ptr noundef %49, i32 noundef %50, ptr noundef %8)
  %53 = icmp ne i32 %52, 0
  br i1 %53, label %54, label %147

54:                                               ; preds = %48
  %55 = load i32, ptr %4, align 4, !tbaa !11
  %56 = icmp sgt i32 %55, 12
  br i1 %56, label %57, label %82

57:                                               ; preds = %54
  %58 = load i32, ptr %5, align 4, !tbaa !11
  %59 = icmp ne i32 %58, 0
  br i1 %59, label %60, label %82

60:                                               ; preds = %57
  %61 = load ptr, ptr %7, align 8, !tbaa !4
  %62 = load i32, ptr %4, align 4, !tbaa !11
  %63 = add nsw i32 %62, 10
  %64 = call i32 @lua_getstack(ptr noundef %61, i32 noundef %63, ptr noundef %8)
  %65 = icmp ne i32 %64, 0
  br i1 %65, label %69, label %66

66:                                               ; preds = %60
  %67 = load i32, ptr %4, align 4, !tbaa !11
  %68 = add nsw i32 %67, -1
  store i32 %68, ptr %4, align 4, !tbaa !11
  br label %81

69:                                               ; preds = %60
  %70 = load ptr, ptr %3, align 8, !tbaa !4
  call void @lua_pushlstring(ptr noundef %70, ptr noundef @.str.44, i64 noundef 5)
  br label %71

71:                                               ; preds = %77, %69
  %72 = load ptr, ptr %7, align 8, !tbaa !4
  %73 = load i32, ptr %4, align 4, !tbaa !11
  %74 = add nsw i32 %73, 10
  %75 = call i32 @lua_getstack(ptr noundef %72, i32 noundef %74, ptr noundef %8)
  %76 = icmp ne i32 %75, 0
  br i1 %76, label %77, label %80

77:                                               ; preds = %71
  %78 = load i32, ptr %4, align 4, !tbaa !11
  %79 = add nsw i32 %78, 1
  store i32 %79, ptr %4, align 4, !tbaa !11
  br label %71, !llvm.loop !25

80:                                               ; preds = %71
  br label %81

81:                                               ; preds = %80, %66
  store i32 0, ptr %5, align 4, !tbaa !11
  br label %48, !llvm.loop !27

82:                                               ; preds = %57, %54
  %83 = load ptr, ptr %3, align 8, !tbaa !4
  call void @lua_pushlstring(ptr noundef %83, ptr noundef @.str.45, i64 noundef 2)
  %84 = load ptr, ptr %7, align 8, !tbaa !4
  %85 = call i32 @lua_getinfo(ptr noundef %84, ptr noundef @.str.46, ptr noundef %8)
  %86 = load ptr, ptr %3, align 8, !tbaa !4
  %87 = getelementptr inbounds nuw %struct.lua_Debug, ptr %8, i32 0, i32 9
  %88 = getelementptr inbounds [60 x i8], ptr %87, i64 0, i64 0
  %89 = call ptr (ptr, ptr, ...) @lua_pushfstring(ptr noundef %86, ptr noundef @.str.47, ptr noundef %88)
  %90 = getelementptr inbounds nuw %struct.lua_Debug, ptr %8, i32 0, i32 5
  %91 = load i32, ptr %90, align 8, !tbaa !21
  %92 = icmp sgt i32 %91, 0
  br i1 %92, label %93, label %98

93:                                               ; preds = %82
  %94 = load ptr, ptr %3, align 8, !tbaa !4
  %95 = getelementptr inbounds nuw %struct.lua_Debug, ptr %8, i32 0, i32 5
  %96 = load i32, ptr %95, align 8, !tbaa !21
  %97 = call ptr (ptr, ptr, ...) @lua_pushfstring(ptr noundef %94, ptr noundef @.str.48, i32 noundef %96)
  br label %98

98:                                               ; preds = %93, %82
  %99 = getelementptr inbounds nuw %struct.lua_Debug, ptr %8, i32 0, i32 2
  %100 = load ptr, ptr %99, align 8, !tbaa !24
  %101 = load i8, ptr %100, align 1, !tbaa !28
  %102 = sext i8 %101 to i32
  %103 = icmp ne i32 %102, 0
  br i1 %103, label %104, label %109

104:                                              ; preds = %98
  %105 = load ptr, ptr %3, align 8, !tbaa !4
  %106 = getelementptr inbounds nuw %struct.lua_Debug, ptr %8, i32 0, i32 1
  %107 = load ptr, ptr %106, align 8, !tbaa !23
  %108 = call ptr (ptr, ptr, ...) @lua_pushfstring(ptr noundef %105, ptr noundef @.str.49, ptr noundef %107)
  br label %141

109:                                              ; preds = %98
  %110 = getelementptr inbounds nuw %struct.lua_Debug, ptr %8, i32 0, i32 3
  %111 = load ptr, ptr %110, align 8, !tbaa !20
  %112 = load i8, ptr %111, align 1, !tbaa !28
  %113 = sext i8 %112 to i32
  %114 = icmp eq i32 %113, 109
  br i1 %114, label %115, label %118

115:                                              ; preds = %109
  %116 = load ptr, ptr %3, align 8, !tbaa !4
  %117 = call ptr (ptr, ptr, ...) @lua_pushfstring(ptr noundef %116, ptr noundef @.str.50)
  br label %140

118:                                              ; preds = %109
  %119 = getelementptr inbounds nuw %struct.lua_Debug, ptr %8, i32 0, i32 3
  %120 = load ptr, ptr %119, align 8, !tbaa !20
  %121 = load i8, ptr %120, align 1, !tbaa !28
  %122 = sext i8 %121 to i32
  %123 = icmp eq i32 %122, 67
  br i1 %123, label %130, label %124

124:                                              ; preds = %118
  %125 = getelementptr inbounds nuw %struct.lua_Debug, ptr %8, i32 0, i32 3
  %126 = load ptr, ptr %125, align 8, !tbaa !20
  %127 = load i8, ptr %126, align 1, !tbaa !28
  %128 = sext i8 %127 to i32
  %129 = icmp eq i32 %128, 116
  br i1 %129, label %130, label %132

130:                                              ; preds = %124, %118
  %131 = load ptr, ptr %3, align 8, !tbaa !4
  call void @lua_pushlstring(ptr noundef %131, ptr noundef @.str.51, i64 noundef 2)
  br label %139

132:                                              ; preds = %124
  %133 = load ptr, ptr %3, align 8, !tbaa !4
  %134 = getelementptr inbounds nuw %struct.lua_Debug, ptr %8, i32 0, i32 9
  %135 = getelementptr inbounds [60 x i8], ptr %134, i64 0, i64 0
  %136 = getelementptr inbounds nuw %struct.lua_Debug, ptr %8, i32 0, i32 7
  %137 = load i32, ptr %136, align 8, !tbaa !18
  %138 = call ptr (ptr, ptr, ...) @lua_pushfstring(ptr noundef %133, ptr noundef @.str.52, ptr noundef %135, i32 noundef %137)
  br label %139

139:                                              ; preds = %132, %130
  br label %140

140:                                              ; preds = %139, %115
  br label %141

141:                                              ; preds = %140, %104
  %142 = load ptr, ptr %3, align 8, !tbaa !4
  %143 = load ptr, ptr %3, align 8, !tbaa !4
  %144 = call i32 @lua_gettop(ptr noundef %143)
  %145 = load i32, ptr %6, align 4, !tbaa !11
  %146 = sub nsw i32 %144, %145
  call void @lua_concat(ptr noundef %142, i32 noundef %146)
  br label %48, !llvm.loop !27

147:                                              ; preds = %48
  %148 = load ptr, ptr %3, align 8, !tbaa !4
  %149 = load ptr, ptr %3, align 8, !tbaa !4
  %150 = call i32 @lua_gettop(ptr noundef %149)
  %151 = load i32, ptr %6, align 4, !tbaa !11
  %152 = sub nsw i32 %150, %151
  call void @lua_concat(ptr noundef %148, i32 noundef %152)
  store i32 1, ptr %2, align 4
  store i32 1, ptr %9, align 4
  br label %153

153:                                              ; preds = %147, %42
  call void @llvm.lifetime.end.p0(i64 120, ptr %8) #4
  call void @llvm.lifetime.end.p0(i64 8, ptr %7) #4
  call void @llvm.lifetime.end.p0(i64 4, ptr %6) #4
  call void @llvm.lifetime.end.p0(i64 4, ptr %5) #4
  call void @llvm.lifetime.end.p0(i64 4, ptr %4) #4
  %154 = load i32, ptr %2, align 4
  ret i32 %154
}