; Function Attrs: nounwind uwtable
define internal noundef i32 @db_errorfb(ptr noundef %0) #0 {
  %2 = alloca %struct.lua_Debug, align 8
  %3 = tail call i32 @lua_type(ptr noundef %0, i32 noundef 1) #8
  %4 = icmp eq i32 %3, 8
  br i1 %4, label %5, label %getthread.exit

5:                                                ; preds = %1
  %6 = tail call ptr @lua_tothread(ptr noundef %0, i32 noundef 1) #8
  br label %getthread.exit

getthread.exit:                                   ; preds = %1, %5
  %.0 = phi i32 [ 1, %5 ], [ 0, %1 ]
  %.0.i = phi ptr [ %6, %5 ], [ %0, %1 ]
  call void @llvm.lifetime.start.p0(i64 120, ptr nonnull %2) #8
  %7 = or disjoint i32 %.0, 2
  %8 = tail call i32 @lua_isnumber(ptr noundef %0, i32 noundef %7) #8
  %.not = icmp eq i32 %8, 0
  br i1 %.not, label %12, label %9

9:                                                ; preds = %getthread.exit
  %10 = tail call i64 @lua_tointeger(ptr noundef %0, i32 noundef %7) #8
  %11 = trunc i64 %10 to i32
  tail call void @lua_settop(ptr noundef %0, i32 noundef -2) #8
  br label %15

12:                                               ; preds = %getthread.exit
  %13 = icmp eq ptr %0, %.0.i
  %14 = zext i1 %13 to i32
  br label %15

15:                                               ; preds = %12, %9
  %.036 = phi i32 [ %11, %9 ], [ %14, %12 ]
  %16 = tail call i32 @lua_gettop(ptr noundef %0) #8
  %17 = icmp eq i32 %16, %.0
  br i1 %17, label %18, label %19

18:                                               ; preds = %15
  tail call void @lua_pushlstring(ptr noundef %0, ptr noundef nonnull @.str.42, i64 noundef 0) #8
  br label %23

19:                                               ; preds = %15
  %20 = add nuw nsw i32 %.0, 1
  %21 = tail call i32 @lua_isstring(ptr noundef %0, i32 noundef %20) #8
  %.not40 = icmp eq i32 %21, 0
  br i1 %.not40, label %72, label %22

22:                                               ; preds = %19
  tail call void @lua_pushlstring(ptr noundef %0, ptr noundef nonnull @.str.17, i64 noundef 1) #8
  br label %23

23:                                               ; preds = %22, %18
  tail call void @lua_pushlstring(ptr noundef %0, ptr noundef nonnull @.str.43, i64 noundef 16) #8
  %24 = call i32 @lua_getstack(ptr noundef %.0.i, i32 noundef %.036, ptr noundef nonnull %2) #8
  %.not415153 = icmp eq i32 %24, 0
  br i1 %.not415153, label %.outer._crit_edge, label %.lr.ph.lr.ph

.lr.ph.lr.ph:                                     ; preds = %23
  %25 = getelementptr inbounds nuw i8, ptr %2, i64 56
  %26 = getelementptr inbounds nuw i8, ptr %2, i64 40
  %27 = getelementptr inbounds nuw i8, ptr %2, i64 16
  %28 = getelementptr inbounds nuw i8, ptr %2, i64 8
  %29 = getelementptr inbounds nuw i8, ptr %2, i64 24
  %30 = getelementptr inbounds nuw i8, ptr %2, i64 48
  br label %.lr.ph

.lr.ph:                                           ; preds = %.lr.ph.lr.ph, %.outer
  %31 = phi i1 [ true, %.lr.ph.lr.ph ], [ false, %.outer ]
  %.1.ph54 = phi i32 [ %.036, %.lr.ph.lr.ph ], [ %.2, %.outer ]
  br label %32

32:                                               ; preds = %.lr.ph, %66
  %.152 = phi i32 [ %.1.ph54, %.lr.ph ], [ %33, %66 ]
  %33 = add nsw i32 %.152, 1
  %34 = icmp sgt i32 %.152, 11
  %or.cond = and i1 %34, %31
  br i1 %or.cond, label %35, label %44

35:                                               ; preds = %32
  %36 = add nuw nsw i32 %.152, 11
  %37 = call i32 @lua_getstack(ptr noundef %.0.i, i32 noundef %36, ptr noundef nonnull %2) #8
  %.not43 = icmp eq i32 %37, 0
  br i1 %.not43, label %.outer, label %38

38:                                               ; preds = %35
  call void @lua_pushlstring(ptr noundef %0, ptr noundef nonnull @.str.44, i64 noundef 5) #8
  br label %39

39:                                               ; preds = %39, %38
  %.3 = phi i32 [ %33, %38 ], [ %42, %39 ]
  %40 = add nuw nsw i32 %.3, 10
  %41 = call i32 @lua_getstack(ptr noundef %.0.i, i32 noundef %40, ptr noundef nonnull %2) #8
  %.not44 = icmp eq i32 %41, 0
  %42 = add nuw nsw i32 %.3, 1
  br i1 %.not44, label %.outer, label %39, !llvm.loop !21

.outer:                                           ; preds = %39, %35
  %.2 = phi i32 [ %.152, %35 ], [ %.3, %39 ]
  %43 = call i32 @lua_getstack(ptr noundef %.0.i, i32 noundef %.2, ptr noundef nonnull %2) #8
  %.not4151 = icmp eq i32 %43, 0
  br i1 %.not4151, label %.outer._crit_edge, label %.lr.ph, !llvm.loop !23

44:                                               ; preds = %32
  call void @lua_pushlstring(ptr noundef %0, ptr noundef nonnull @.str.45, i64 noundef 2) #8
  %45 = call i32 @lua_getinfo(ptr noundef %.0.i, ptr noundef nonnull @.str.46, ptr noundef nonnull %2) #8
  %46 = call ptr (ptr, ptr, ...) @lua_pushfstring(ptr noundef %0, ptr noundef nonnull @.str.47, ptr noundef nonnull %25) #8
  %47 = load i32, ptr %26, align 8, !tbaa !17
  %48 = icmp sgt i32 %47, 0
  br i1 %48, label %49, label %51

49:                                               ; preds = %44
  %50 = call ptr (ptr, ptr, ...) @lua_pushfstring(ptr noundef %0, ptr noundef nonnull @.str.48, i32 noundef %47) #8
  br label %51

51:                                               ; preds = %49, %44
  %52 = load ptr, ptr %27, align 8, !tbaa !20
  %53 = load i8, ptr %52, align 1, !tbaa !9
  %.not42 = icmp eq i8 %53, 0
  br i1 %.not42, label %57, label %54

54:                                               ; preds = %51
  %55 = load ptr, ptr %28, align 8, !tbaa !19
  %56 = call ptr (ptr, ptr, ...) @lua_pushfstring(ptr noundef %0, ptr noundef nonnull @.str.49, ptr noundef %55) #8
  br label %66

57:                                               ; preds = %51
  %58 = load ptr, ptr %29, align 8, !tbaa !16
  %59 = load i8, ptr %58, align 1, !tbaa !9
  switch i8 %59, label %63 [
    i8 109, label %60
    i8 67, label %62
    i8 116, label %62
  ]

60:                                               ; preds = %57
  %61 = call ptr (ptr, ptr, ...) @lua_pushfstring(ptr noundef %0, ptr noundef nonnull @.str.50) #8
  br label %66

62:                                               ; preds = %57, %57
  call void @lua_pushlstring(ptr noundef %0, ptr noundef nonnull @.str.51, i64 noundef 2) #8
  br label %66

63:                                               ; preds = %57
  %64 = load i32, ptr %30, align 8, !tbaa !14
  %65 = call ptr (ptr, ptr, ...) @lua_pushfstring(ptr noundef %0, ptr noundef nonnull @.str.52, ptr noundef nonnull %25, i32 noundef %64) #8
  br label %66

66:                                               ; preds = %60, %63, %62, %54
  %67 = call i32 @lua_gettop(ptr noundef %0) #8
  %68 = sub nsw i32 %67, %.0
  call void @lua_concat(ptr noundef %0, i32 noundef %68) #8
  %69 = call i32 @lua_getstack(ptr noundef %.0.i, i32 noundef %33, ptr noundef nonnull %2) #8
  %.not41 = icmp eq i32 %69, 0
  br i1 %.not41, label %.outer._crit_edge, label %32, !llvm.loop !23

.outer._crit_edge:                                ; preds = %.outer, %66, %23
  %70 = call i32 @lua_gettop(ptr noundef %0) #8
  %71 = sub nsw i32 %70, %.0
  call void @lua_concat(ptr noundef %0, i32 noundef %71) #8
  br label %72

72:                                               ; preds = %19, %.outer._crit_edge
  call void @llvm.lifetime.end.p0(i64 120, ptr nonnull %2) #8
  ret i32 1
}